; Function Attrs: mustprogress nofree norecurse nosync nounwind willreturn memory(read, inaccessiblemem: none) uwtable
define hidden noundef zeroext i1 @_ZNK23G1PageBasedVirtualSpace17is_area_committedEmm(ptr nocapture noundef nonnull readonly align 8 dereferenceable(81) %0, i64 noundef %1, i64 noundef %2) local_unnamed_addr #5 align 2 {
  %4 = add i64 %2, %1
  %5 = icmp ugt i64 %4, %1
  br i1 %5, label %6, label %.loopexit.i.i

6:                                                ; preds = %3
  %7 = getelementptr inbounds i8, ptr %0, i64 32
  %8 = lshr i64 %1, 6
  %9 = load ptr, ptr %7, align 8
  %10 = getelementptr inbounds i64, ptr %9, i64 %8
  %11 = load i64, ptr %10, align 8
  %12 = xor i64 %11, -1
  %13 = and i64 %1, 63
  %14 = lshr i64 %12, %13
  %15 = and i64 %14, 1
  %.not.i.i = icmp eq i64 %15, 0
  br i1 %.not.i.i, label %16, label %_ZNK6BitMap20find_first_clear_bitEmm.exit

16:                                               ; preds = %6
  %17 = icmp eq i64 %14, 0
  br i1 %17, label %18, label %30

18:                                               ; preds = %16
  %19 = add i64 %4, 63
  %20 = lshr i64 %19, 6
  br label %21

21:                                               ; preds = %24, %18
  %.025.i.i = phi i64 [ %8, %18 ], [ %22, %24 ]
  %22 = add nuw nsw i64 %.025.i.i, 1
  %23 = icmp ult i64 %22, %20
  br i1 %23, label %24, label %.loopexit.i.i

24:                                               ; preds = %21
  %25 = getelementptr inbounds i64, ptr %9, i64 %22
  %26 = load i64, ptr %25, align 8
  %.not36.i.i = icmp eq i64 %26, -1
  br i1 %.not36.i.i, label %21, label %27, !llvm.loop !6

27:                                               ; preds = %24
  %28 = xor i64 %26, -1
  %29 = shl i64 %22, 6
  br label %30

30:                                               ; preds = %27, %16
  %.1.ph.i.i = phi i64 [ %14, %16 ], [ %28, %27 ]
  %.026.ph.i.i = phi i64 [ %1, %16 ], [ %29, %27 ]
  %31 = tail call range(i64 0, 65) i64 @llvm.cttz.i64(i64 %.1.ph.i.i, i1 true)
  %32 = add i64 %.026.ph.i.i, %31
  %33 = icmp ult i64 %32, %4
  br i1 %33, label %_ZNK6BitMap20find_first_clear_bitEmm.exit, label %.loopexit.i.i

.loopexit.i.i:                                    ; preds = %21, %30, %3
  br label %_ZNK6BitMap20find_first_clear_bitEmm.exit

_ZNK6BitMap20find_first_clear_bitEmm.exit:        ; preds = %6, %30, %.loopexit.i.i
  %.0.i.i = phi i64 [ %4, %.loopexit.i.i ], [ %1, %6 ], [ %32, %30 ]
  %34 = icmp uge i64 %.0.i.i, %4
  ret i1 %34
}